target datalayout = "e-m:e-p270:32:32-p271:32:32-p272:64:64-i64:64-i128:128-f80:128-n8:16:32:64-S128"
target triple = "x86_64-pc-linux-gnu"

%struct.VP8EncIterator = type { i32, i32, ptr, ptr, ptr, ptr, ptr, ptr, ptr, ptr, ptr, [37 x i8], ptr, i32, [9 x i32], [9 x i32], [4 x [3 x i64]], i64, i64, ptr, i32, i32, i32, i32, [2 x [2 x i8]], ptr, ptr, ptr, ptr, ptr, ptr, [88 x i8], [3359 x i8] }
%struct.VP8Encoder = type { ptr, ptr, %struct.VP8EncFilterHeader, %struct.VP8EncSegmentHeader, i32, i32, i32, i32, i32, %struct.VP8BitWriter, [8 x %struct.VP8BitWriter], %struct.VP8TBuffer, i32, i32, ptr, i32, %struct.WebPWorker, [4 x %struct.VP8SegmentInfo], i32, i32, i32, i32, i32, i32, i32, i32, %struct.VP8EncProba, [4 x i64], i64, i32, [3 x [4 x i32]], [3 x i32], i32, i32, i32, i32, i32, i32, i32, ptr, ptr, ptr, ptr, ptr, ptr, ptr }
%struct.VP8EncFilterHeader = type { i32, i32, i32, i32 }
%struct.VP8EncSegmentHeader = type { i32, i32, i32 }
%struct.VP8BitWriter = type { i32, i32, i32, i32, ptr, i64, i64, i32 }
%struct.VP8TBuffer = type { ptr, ptr, ptr, i32, i32, i32 }
%struct.WebPWorker = type { ptr, i32, ptr, ptr, ptr, i32 }
%struct.VP8SegmentInfo = type { %struct.VP8Matrix, %struct.VP8Matrix, %struct.VP8Matrix, i32, i32, i32, i32, i32, i32, i32, i32, i32, i32, i32, i32, i32, i32, i32, i64 }
%struct.VP8Matrix = type { [16 x i16], [16 x i16], [16 x i32], [16 x i32], [16 x i16] }
%struct.VP8EncProba = type { [3 x i8], i8, [4 x [8 x [3 x [11 x i8]]]], [4 x [8 x [3 x [11 x i32]]]], [4 x [8 x [3 x [68 x i16]]]], [4 x [16 x [3 x ptr]]], i32, i32, i32 }
%struct.WebPPicture = type { i32, i32, i32, i32, ptr, ptr, ptr, i32, i32, ptr, i32, [2 x i32], ptr, i32, [3 x i32], ptr, ptr, i32, ptr, ptr, i32, ptr, ptr, [3 x i32], ptr, ptr, [8 x i32], ptr, ptr, [2 x ptr] }

; Function Attrs: nounwind uwtable
define hidden i32 @VP8IteratorProgress(ptr noundef %0, i32 noundef %1) #0 {
  %3 = alloca i32, align 4
  %4 = alloca ptr, align 8
  %5 = alloca i32, align 4
  %6 = alloca ptr, align 8
  %7 = alloca i32, align 4
  %8 = alloca i32, align 4
  %9 = alloca i32, align 4
  store ptr %0, ptr %4, align 8, !tbaa !3
  store i32 %1, ptr %5, align 4, !tbaa !7
  call void @llvm.lifetime.start.p0(i64 8, ptr %6) #6
  %10 = load ptr, ptr %4, align 8, !tbaa !3
  %11 = getelementptr inbounds nuw %struct.VP8EncIterator, ptr %10, i32 0, i32 6
  %12 = load ptr, ptr %11, align 8, !tbaa !9
  store ptr %12, ptr %6, align 8, !tbaa !17
  %13 = load i32, ptr %5, align 4, !tbaa !7
  %14 = icmp ne i32 %13, 0
  br i1 %14, label %15, label %59

15:                                               ; preds = %2
  %16 = load ptr, ptr %6, align 8, !tbaa !17
  %17 = getelementptr inbounds nuw %struct.VP8Encoder, ptr %16, i32 0, i32 1
  %18 = load ptr, ptr %17, align 8, !tbaa !64
  %19 = getelementptr inbounds nuw %struct.WebPPicture, ptr %18, i32 0, i32 21
  %20 = load ptr, ptr %19, align 8, !tbaa !65
  %21 = icmp ne ptr %20, null
  br i1 %21, label %22, label %59

22:                                               ; preds = %15
  call void @llvm.lifetime.start.p0(i64 4, ptr %7) #6
  %23 = load ptr, ptr %4, align 8, !tbaa !3
  %24 = getelementptr inbounds nuw %struct.VP8EncIterator, ptr %23, i32 0, i32 22
  %25 = load i32, ptr %24, align 8, !tbaa !51
  %26 = load ptr, ptr %4, align 8, !tbaa !3
  %27 = getelementptr inbounds nuw %struct.VP8EncIterator, ptr %26, i32 0, i32 21
  %28 = load i32, ptr %27, align 4, !tbaa !52
  %29 = sub nsw i32 %25, %28
  store i32 %29, ptr %7, align 4, !tbaa !7
  call void @llvm.lifetime.start.p0(i64 4, ptr %8) #6
  %30 = load ptr, ptr %4, align 8, !tbaa !3
  %31 = getelementptr inbounds nuw %struct.VP8EncIterator, ptr %30, i32 0, i32 22
  %32 = load i32, ptr %31, align 8, !tbaa !51
  %33 = icmp sle i32 %32, 0
  br i1 %33, label %34, label %38

34:                                               ; preds = %22
  %35 = load ptr, ptr %4, align 8, !tbaa !3
  %36 = getelementptr inbounds nuw %struct.VP8EncIterator, ptr %35, i32 0, i32 23
  %37 = load i32, ptr %36, align 4, !tbaa !60
  br label %50

38:                                               ; preds = %22
  %39 = load ptr, ptr %4, align 8, !tbaa !3
  %40 = getelementptr inbounds nuw %struct.VP8EncIterator, ptr %39, i32 0, i32 23
  %41 = load i32, ptr %40, align 4, !tbaa !60
  %42 = load i32, ptr %5, align 4, !tbaa !7
  %43 = load i32, ptr %7, align 4, !tbaa !7
  %44 = mul nsw i32 %42, %43
  %45 = load ptr, ptr %4, align 8, !tbaa !3
  %46 = getelementptr inbounds nuw %struct.VP8EncIterator, ptr %45, i32 0, i32 22
  %47 = load i32, ptr %46, align 8, !tbaa !51
  %48 = sdiv i32 %44, %47
  %49 = add nsw i32 %41, %48
  br label %50

50:                                               ; preds = %38, %34
  %51 = phi i32 [ %37, %34 ], [ %49, %38 ]
  store i32 %51, ptr %8, align 4, !tbaa !7
  %52 = load ptr, ptr %6, align 8, !tbaa !17
  %53 = getelementptr inbounds nuw %struct.VP8Encoder, ptr %52, i32 0, i32 1
  %54 = load ptr, ptr %53, align 8, !tbaa !64
  %55 = load i32, ptr %8, align 4, !tbaa !7
  %56 = load ptr, ptr %6, align 8, !tbaa !17
  %57 = getelementptr inbounds nuw %struct.VP8Encoder, ptr %56, i32 0, i32 12
  %58 = call i32 @WebPReportProgress(ptr noundef %54, i32 noundef %55, ptr noundef %57)
  store i32 %58, ptr %3, align 4
  store i32 1, ptr %9, align 4
  call void @llvm.lifetime.end.p0(i64 4, ptr %8) #6
  call void @llvm.lifetime.end.p0(i64 4, ptr %7) #6
  br label %60

59:                                               ; preds = %15, %2
  store i32 1, ptr %3, align 4
  store i32 1, ptr %9, align 4
  br label %60

60:                                               ; preds = %59, %50
  call void @llvm.lifetime.end.p0(i64 8, ptr %6) #6
  %61 = load i32, ptr %3, align 4
  ret i32 %61
}