; Function Attrs: nounwind uwtable
define hidden i32 @VP8IteratorProgress(ptr noundef readonly captures(none) %0, i32 noundef %1) local_unnamed_addr #3 {
  %3 = getelementptr inbounds nuw i8, ptr %0, i64 40
  %4 = load ptr, ptr %3, align 8, !tbaa !3
  %.not = icmp eq i32 %1, 0
  br i1 %.not, label %30, label %5

5:                                                ; preds = %2
  %6 = getelementptr inbounds nuw i8, ptr %4, i64 8
  %7 = load ptr, ptr %6, align 8, !tbaa !62
  %8 = getelementptr inbounds nuw i8, ptr %7, i64 144
  %9 = load ptr, ptr %8, align 8, !tbaa !63
  %.not16 = icmp eq ptr %9, null
  br i1 %.not16, label %30, label %10

10:                                               ; preds = %5
  %11 = getelementptr inbounds nuw i8, ptr %0, i64 336
  %12 = load i32, ptr %11, align 8, !tbaa !49
  %13 = icmp slt i32 %12, 1
  br i1 %13, label %14, label %17

14:                                               ; preds = %10
  %15 = getelementptr inbounds nuw i8, ptr %0, i64 340
  %16 = load i32, ptr %15, align 4, !tbaa !58
  br label %26

17:                                               ; preds = %10
  %18 = getelementptr inbounds nuw i8, ptr %0, i64 332
  %19 = load i32, ptr %18, align 4, !tbaa !50
  %20 = sub nsw i32 %12, %19
  %21 = getelementptr inbounds nuw i8, ptr %0, i64 340
  %22 = load i32, ptr %21, align 4, !tbaa !58
  %23 = mul nsw i32 %20, %1
  %24 = sdiv i32 %23, %12
  %25 = add nsw i32 %24, %22
  br label %26

26:                                               ; preds = %17, %14
  %27 = phi i32 [ %16, %14 ], [ %25, %17 ]
  %28 = getelementptr inbounds nuw i8, ptr %4, i64 536
  %29 = tail call i32 @WebPReportProgress(ptr noundef nonnull %7, i32 noundef %27, ptr noundef nonnull %28) #12
  br label %30

30:                                               ; preds = %2, %5, %26
  %.0 = phi i32 [ %29, %26 ], [ 1, %5 ], [ 1, %2 ]
  ret i32 %.0
}